target datalayout = "e-m:e-p270:32:32-p271:32:32-p272:64:64-i64:64-i128:128-f80:128-n8:16:32:64-S128"
target triple = "x86_64-pc-linux-gnu"

%struct.lib_blkoutstream_s = type { %struct.lib_outstream_s, ptr, %struct.geometry, ptr }
%struct.lib_outstream_s = type { i32, ptr, ptr, ptr }
%struct.geometry = type { i8, i8, i8, i32, i16, [33 x i8] }
%struct.inode = type { ptr, ptr, ptr, i16, i16, %union.inode_ops_u, i16, ptr, [1 x i8] }
%union.inode_ops_u = type { ptr }
%struct.block_operations = type { ptr, ptr, ptr, ptr, ptr, ptr, ptr }

; Function Attrs: nounwind uwtable
define internal i32 @blkoutstream_puts(ptr noundef %0, ptr noundef %1, i32 noundef %2) #0 {
  %4 = alloca i32, align 4
  %5 = alloca ptr, align 8
  %6 = alloca ptr, align 8
  %7 = alloca i32, align 4
  %8 = alloca ptr, align 8
  %9 = alloca i64, align 8
  %10 = alloca ptr, align 8
  %11 = alloca ptr, align 8
  %12 = alloca i64, align 8
  %13 = alloca i32, align 4
  %14 = alloca i64, align 8
  %15 = alloca i64, align 8
  %16 = alloca i64, align 8
  %17 = alloca i64, align 8
  store ptr %0, ptr %5, align 8
  store ptr %1, ptr %6, align 8
  store i32 %2, ptr %7, align 4
  %18 = load ptr, ptr %5, align 8
  store ptr %18, ptr %8, align 8
  %19 = load ptr, ptr %8, align 8
  %20 = getelementptr inbounds %struct.lib_blkoutstream_s, ptr %19, i32 0, i32 2
  %21 = getelementptr inbounds %struct.geometry, ptr %20, i32 0, i32 4
  %22 = load i16, ptr %21, align 8
  %23 = sext i16 %22 to i64
  store i64 %23, ptr %9, align 8
  %24 = load ptr, ptr %8, align 8
  %25 = getelementptr inbounds %struct.lib_blkoutstream_s, ptr %24, i32 0, i32 1
  %26 = load ptr, ptr %25, align 8
  store ptr %26, ptr %10, align 8
  %27 = load ptr, ptr %6, align 8
  store ptr %27, ptr %11, align 8
  %28 = load i32, ptr %7, align 4
  %29 = sext i32 %28 to i64
  store i64 %29, ptr %12, align 8
  br label %30

30:                                               ; preds = %194, %3
  %31 = load i64, ptr %12, align 8
  %32 = icmp ugt i64 %31, 0
  br i1 %32, label %33, label %195

33:                                               ; preds = %30
  %34 = load ptr, ptr %5, align 8
  %35 = getelementptr inbounds %struct.lib_outstream_s, ptr %34, i32 0, i32 0
  %36 = load i32, ptr %35, align 8
  %37 = sext i32 %36 to i64
  %38 = load i64, ptr %9, align 8
  %39 = udiv i64 %37, %38
  store i64 %39, ptr %14, align 8
  %40 = load ptr, ptr %5, align 8
  %41 = getelementptr inbounds %struct.lib_outstream_s, ptr %40, i32 0, i32 0
  %42 = load i32, ptr %41, align 8
  %43 = sext i32 %42 to i64
  %44 = load i64, ptr %9, align 8
  %45 = urem i64 %43, %44
  store i64 %45, ptr %15, align 8
  %46 = load i64, ptr %15, align 8
  %47 = icmp ugt i64 %46, 0
  br i1 %47, label %48, label %112

48:                                               ; preds = %33
  %49 = load i64, ptr %15, align 8
  %50 = load i64, ptr %12, align 8
  %51 = add i64 %49, %50
  %52 = load i64, ptr %9, align 8
  %53 = icmp ugt i64 %51, %52
  br i1 %53, label %54, label %58

54:                                               ; preds = %48
  %55 = load i64, ptr %9, align 8
  %56 = load i64, ptr %15, align 8
  %57 = sub i64 %55, %56
  br label %60

58:                                               ; preds = %48
  %59 = load i64, ptr %12, align 8
  br label %60

60:                                               ; preds = %58, %54
  %61 = phi i64 [ %57, %54 ], [ %59, %58 ]
  store i64 %61, ptr %16, align 8
  %62 = load ptr, ptr %8, align 8
  %63 = getelementptr inbounds %struct.lib_blkoutstream_s, ptr %62, i32 0, i32 3
  %64 = load ptr, ptr %63, align 8
  %65 = load i64, ptr %15, align 8
  %66 = getelementptr inbounds i8, ptr %64, i64 %65
  %67 = load ptr, ptr %11, align 8
  %68 = load i64, ptr %16, align 8
  call void @llvm.memcpy.p0.p0.i64(ptr align 1 %66, ptr align 1 %67, i64 %68, i1 false)
  %69 = load i64, ptr %16, align 8
  %70 = load ptr, ptr %11, align 8
  %71 = getelementptr inbounds i8, ptr %70, i64 %69
  store ptr %71, ptr %11, align 8
  %72 = load i64, ptr %16, align 8
  %73 = load i64, ptr %15, align 8
  %74 = add i64 %73, %72
  store i64 %74, ptr %15, align 8
  %75 = load i64, ptr %16, align 8
  %76 = load ptr, ptr %5, align 8
  %77 = getelementptr inbounds %struct.lib_outstream_s, ptr %76, i32 0, i32 0
  %78 = load i32, ptr %77, align 8
  %79 = sext i32 %78 to i64
  %80 = add i64 %79, %75
  %81 = trunc i64 %80 to i32
  store i32 %81, ptr %77, align 8
  %82 = load i64, ptr %16, align 8
  %83 = load i64, ptr %12, align 8
  %84 = sub i64 %83, %82
  store i64 %84, ptr %12, align 8
  %85 = load i64, ptr %15, align 8
  %86 = load ptr, ptr %8, align 8
  %87 = getelementptr inbounds %struct.lib_blkoutstream_s, ptr %86, i32 0, i32 2
  %88 = getelementptr inbounds %struct.geometry, ptr %87, i32 0, i32 4
  %89 = load i16, ptr %88, align 8
  %90 = sext i16 %89 to i64
  %91 = icmp eq i64 %85, %90
  br i1 %91, label %92, label %111

92:                                               ; preds = %60
  %93 = load ptr, ptr %10, align 8
  %94 = getelementptr inbounds %struct.inode, ptr %93, i32 0, i32 5
  %95 = load ptr, ptr %94, align 8
  %96 = getelementptr inbounds %struct.block_operations, ptr %95, i32 0, i32 3
  %97 = load ptr, ptr %96, align 8
  %98 = load ptr, ptr %10, align 8
  %99 = load ptr, ptr %8, align 8
  %100 = getelementptr inbounds %struct.lib_blkoutstream_s, ptr %99, i32 0, i32 3
  %101 = load ptr, ptr %100, align 8
  %102 = load i64, ptr %14, align 8
  %103 = trunc i64 %102 to i32
  %104 = call i64 %97(ptr noundef %98, ptr noundef %101, i32 noundef %103, i32 noundef 1)
  %105 = trunc i64 %104 to i32
  store i32 %105, ptr %13, align 4
  %106 = load i32, ptr %13, align 4
  %107 = icmp slt i32 %106, 0
  br i1 %107, label %108, label %110

108:                                              ; preds = %92
  %109 = load i32, ptr %13, align 4
  store i32 %109, ptr %4, align 4
  br label %197

110:                                              ; preds = %92
  br label %111

111:                                              ; preds = %110, %60
  br label %194

112:                                              ; preds = %33
  %113 = load i64, ptr %12, align 8
  %114 = load ptr, ptr %8, align 8
  %115 = getelementptr inbounds %struct.lib_blkoutstream_s, ptr %114, i32 0, i32 2
  %116 = getelementptr inbounds %struct.geometry, ptr %115, i32 0, i32 4
  %117 = load i16, ptr %116, align 8
  %118 = sext i16 %117 to i64
  %119 = icmp ult i64 %113, %118
  br i1 %119, label %120, label %133

120:                                              ; preds = %112
  %121 = load ptr, ptr %8, align 8
  %122 = getelementptr inbounds %struct.lib_blkoutstream_s, ptr %121, i32 0, i32 3
  %123 = load ptr, ptr %122, align 8
  %124 = load ptr, ptr %11, align 8
  %125 = load i64, ptr %12, align 8
  call void @llvm.memcpy.p0.p0.i64(ptr align 1 %123, ptr align 1 %124, i64 %125, i1 false)
  %126 = load i64, ptr %12, align 8
  %127 = load ptr, ptr %5, align 8
  %128 = getelementptr inbounds %struct.lib_outstream_s, ptr %127, i32 0, i32 0
  %129 = load i32, ptr %128, align 8
  %130 = sext i32 %129 to i64
  %131 = add i64 %130, %126
  %132 = trunc i64 %131 to i32
  store i32 %132, ptr %128, align 8
  store i64 0, ptr %12, align 8
  br label %193

133:                                              ; preds = %112
  %134 = load i64, ptr %12, align 8
  %135 = load ptr, ptr %8, align 8
  %136 = getelementptr inbounds %struct.lib_blkoutstream_s, ptr %135, i32 0, i32 2
  %137 = getelementptr inbounds %struct.geometry, ptr %136, i32 0, i32 4
  %138 = load i16, ptr %137, align 8
  %139 = sext i16 %138 to i64
  %140 = icmp uge i64 %134, %139
  br i1 %140, label %141, label %192

141:                                              ; preds = %133
  %142 = load i64, ptr %12, align 8
  %143 = load ptr, ptr %8, align 8
  %144 = getelementptr inbounds %struct.lib_blkoutstream_s, ptr %143, i32 0, i32 2
  %145 = getelementptr inbounds %struct.geometry, ptr %144, i32 0, i32 4
  %146 = load i16, ptr %145, align 8
  %147 = sext i16 %146 to i64
  %148 = udiv i64 %142, %147
  %149 = load ptr, ptr %8, align 8
  %150 = getelementptr inbounds %struct.lib_blkoutstream_s, ptr %149, i32 0, i32 2
  %151 = getelementptr inbounds %struct.geometry, ptr %150, i32 0, i32 4
  %152 = load i16, ptr %151, align 8
  %153 = sext i16 %152 to i64
  %154 = mul i64 %148, %153
  store i64 %154, ptr %17, align 8
  %155 = load ptr, ptr %10, align 8
  %156 = getelementptr inbounds %struct.inode, ptr %155, i32 0, i32 5
  %157 = load ptr, ptr %156, align 8
  %158 = getelementptr inbounds %struct.block_operations, ptr %157, i32 0, i32 3
  %159 = load ptr, ptr %158, align 8
  %160 = load ptr, ptr %10, align 8
  %161 = load ptr, ptr %11, align 8
  %162 = load i64, ptr %14, align 8
  %163 = trunc i64 %162 to i32
  %164 = load i64, ptr %12, align 8
  %165 = load ptr, ptr %8, align 8
  %166 = getelementptr inbounds %struct.lib_blkoutstream_s, ptr %165, i32 0, i32 2
  %167 = getelementptr inbounds %struct.geometry, ptr %166, i32 0, i32 4
  %168 = load i16, ptr %167, align 8
  %169 = sext i16 %168 to i64
  %170 = udiv i64 %164, %169
  %171 = trunc i64 %170 to i32
  %172 = call i64 %159(ptr noundef %160, ptr noundef %161, i32 noundef %163, i32 noundef %171)
  %173 = trunc i64 %172 to i32
  store i32 %173, ptr %13, align 4
  %174 = load i32, ptr %13, align 4
  %175 = icmp slt i32 %174, 0
  br i1 %175, label %176, label %178

176:                                              ; preds = %141
  %177 = load i32, ptr %13, align 4
  store i32 %177, ptr %4, align 4
  br label %197

178:                                              ; preds = %141
  %179 = load i64, ptr %17, align 8
  %180 = load ptr, ptr %11, align 8
  %181 = getelementptr inbounds i8, ptr %180, i64 %179
  store ptr %181, ptr %11, align 8
  %182 = load i64, ptr %17, align 8
  %183 = load ptr, ptr %5, align 8
  %184 = getelementptr inbounds %struct.lib_outstream_s, ptr %183, i32 0, i32 0
  %185 = load i32, ptr %184, align 8
  %186 = sext i32 %185 to i64
  %187 = add i64 %186, %182
  %188 = trunc i64 %187 to i32
  store i32 %188, ptr %184, align 8
  %189 = load i64, ptr %17, align 8
  %190 = load i64, ptr %12, align 8
  %191 = sub i64 %190, %189
  store i64 %191, ptr %12, align 8
  br label %192

192:                                              ; preds = %178, %133
  br label %193

193:                                              ; preds = %192, %120
  br label %194

194:                                              ; preds = %193, %111
  br label %30, !llvm.loop !6

195:                                              ; preds = %30
  %196 = load i32, ptr %7, align 4
  store i32 %196, ptr %4, align 4
  br label %197

197:                                              ; preds = %195, %176, %108
  %198 = load i32, ptr %4, align 4
  ret i32 %198
}