; Function Attrs: nounwind uwtable
define internal i32 @blkoutstream_puts(ptr noundef captures(none) %0, ptr noundef %1, i32 noundef %2) #0 {
  %4 = getelementptr inbounds nuw i8, ptr %0, i64 48
  %5 = load i16, ptr %4, align 8
  %6 = sext i16 %5 to i64
  %7 = getelementptr inbounds nuw i8, ptr %0, i64 32
  %8 = load ptr, ptr %7, align 8
  %9 = getelementptr inbounds nuw i8, ptr %8, i64 32
  %.not72 = icmp eq i32 %2, 0
  br i1 %.not72, label %._crit_edge, label %.lr.ph

.lr.ph:                                           ; preds = %3
  %10 = sext i32 %2 to i64
  %11 = getelementptr inbounds nuw i8, ptr %0, i64 88
  br label %12

12:                                               ; preds = %.lr.ph, %63
  %.06474 = phi ptr [ %1, %.lr.ph ], [ %.1, %63 ]
  %.06573 = phi i64 [ %10, %.lr.ph ], [ %.166, %63 ]
  %13 = load i32, ptr %0, align 8
  %14 = sext i32 %13 to i64
  %15 = udiv i64 %14, %6
  %16 = urem i64 %14, %6
  %.not71 = icmp eq i64 %16, 0
  br i1 %.not71, label %40, label %17

17:                                               ; preds = %12
  %18 = add i64 %16, %.06573
  %19 = icmp ugt i64 %18, %6
  %20 = sub i64 %6, %16
  %21 = select i1 %19, i64 %20, i64 %.06573
  %22 = load ptr, ptr %11, align 8
  %23 = getelementptr inbounds i8, ptr %22, i64 %16
  tail call void @llvm.memcpy.p0.p0.i64(ptr nonnull align 1 %23, ptr align 1 %.06474, i64 %21, i1 false)
  %24 = add i64 %21, %16
  %25 = load i32, ptr %0, align 8
  %26 = trunc i64 %21 to i32
  %27 = add i32 %25, %26
  store i32 %27, ptr %0, align 8
  %28 = load i16, ptr %4, align 8
  %29 = sext i16 %28 to i64
  %30 = icmp eq i64 %24, %29
  br i1 %30, label %31, label %63

31:                                               ; preds = %17
  %32 = load ptr, ptr %9, align 8
  %33 = getelementptr inbounds nuw i8, ptr %32, i64 24
  %34 = load ptr, ptr %33, align 8
  %35 = load ptr, ptr %11, align 8
  %36 = trunc i64 %15 to i32
  %37 = tail call i64 %34(ptr noundef %8, ptr noundef %35, i32 noundef %36, i32 noundef 1) #6
  %38 = trunc i64 %37 to i32
  %39 = icmp slt i32 %38, 0
  br i1 %39, label %._crit_edge, label %63

40:                                               ; preds = %12
  %41 = load i16, ptr %4, align 8
  %42 = sext i16 %41 to i64
  %43 = icmp ult i64 %.06573, %42
  br i1 %43, label %.thread, label %48

.thread:                                          ; preds = %40
  %44 = load ptr, ptr %11, align 8
  tail call void @llvm.memcpy.p0.p0.i64(ptr align 1 %44, ptr align 1 %.06474, i64 %.06573, i1 false)
  %45 = load i32, ptr %0, align 8
  %46 = trunc i64 %.06573 to i32
  %47 = add i32 %45, %46
  store i32 %47, ptr %0, align 8
  br label %._crit_edge

48:                                               ; preds = %40
  %49 = udiv i64 %.06573, %42
  %50 = load ptr, ptr %9, align 8
  %51 = getelementptr inbounds nuw i8, ptr %50, i64 24
  %52 = load ptr, ptr %51, align 8
  %53 = trunc i64 %15 to i32
  %54 = trunc i64 %49 to i32
  %55 = tail call i64 %52(ptr noundef %8, ptr noundef %.06474, i32 noundef %53, i32 noundef %54) #6
  %56 = trunc i64 %55 to i32
  %57 = icmp slt i32 %56, 0
  br i1 %57, label %._crit_edge, label %58

58:                                               ; preds = %48
  %59 = mul i64 %49, %42
  %60 = load i32, ptr %0, align 8
  %61 = trunc i64 %59 to i32
  %62 = add i32 %60, %61
  store i32 %62, ptr %0, align 8
  br label %63

63:                                               ; preds = %58, %17, %31
  %.pn = phi i64 [ %21, %31 ], [ %21, %17 ], [ %59, %58 ]
  %.1 = getelementptr inbounds i8, ptr %.06474, i64 %.pn
  %.166 = sub i64 %.06573, %.pn
  %.not = icmp eq i64 %.166, 0
  br i1 %.not, label %._crit_edge, label %12, !llvm.loop !6

._crit_edge:                                      ; preds = %31, %48, %63, %.thread, %3
  %.0 = phi i32 [ 0, %3 ], [ %2, %.thread ], [ %2, %63 ], [ %56, %48 ], [ %38, %31 ]
  ret i32 %.0
}